target datalayout = "e-m:e-p270:32:32-p271:32:32-p272:64:64-i64:64-i128:128-f80:128-n8:16:32:64-S128"
target triple = "x86_64-pc-linux-gnu"

%"class.datatype::param_size::size" = type <{ ptr, i32, [4 x i8] }>
%"class.datatype::param_size::size.base" = type <{ ptr, i32 }>
%"struct.datatype::param_size::plus" = type { %"class.datatype::param_size::size.base", ptr, ptr }

; Function Attrs: mustprogress nounwind uwtable
define linkonce_odr hidden void @_ZN8datatype10param_size4sizeD2Ev(ptr noundef nonnull align 8 dereferenceable(12) %0) unnamed_addr #5 comdat align 2 {
  %2 = alloca ptr, align 8
  store ptr %0, ptr %2, align 8, !tbaa !105
  ret void
}

; Function Attrs: mustprogress nounwind uwtable
define linkonce_odr hidden void @_ZN8datatype10param_size4size7inc_refEv(ptr noundef nonnull align 8 dereferenceable(12) %0) #5 comdat align 2 {
  %2 = alloca ptr, align 8
  store ptr %0, ptr %2, align 8, !tbaa !105
  %3 = load ptr, ptr %2, align 8
  %4 = getelementptr inbounds nuw %"class.datatype::param_size::size", ptr %3, i32 0, i32 1
  %5 = load i32, ptr %4, align 8, !tbaa !106
  %6 = add i32 %5, 1
  store i32 %6, ptr %4, align 8, !tbaa !106
  ret void
}

; Function Attrs: inlinehint mustprogress nounwind uwtable
define linkonce_odr hidden void @_ZN8datatype10param_size4sizeC2Ev(ptr noundef nonnull align 8 dereferenceable(12) %0) unnamed_addr #7 comdat align 2 {
  %2 = alloca ptr, align 8
  store ptr %0, ptr %2, align 8, !tbaa !105
  %3 = load ptr, ptr %2, align 8
  store ptr getelementptr inbounds inrange(-16, 32) ({ [6 x ptr] }, ptr @_ZTVN8datatype10param_size4sizeE, i32 0, i32 0, i32 2), ptr %3, align 8, !tbaa !108
  %4 = getelementptr inbounds nuw %"class.datatype::param_size::size", ptr %3, i32 0, i32 1
  store i32 0, ptr %4, align 8, !tbaa !106
  ret void
}

; Function Attrs: mustprogress uwtable
define linkonce_odr hidden void @_ZN8datatype10param_size4plusC2EPNS0_4sizeES3_(ptr noundef nonnull align 8 dereferenceable(32) %0, ptr noundef %1, ptr noundef %2) unnamed_addr #4 comdat align 2 personality ptr @__gxx_personality_v0 {
  %4 = alloca ptr, align 8
  %5 = alloca ptr, align 8
  %6 = alloca ptr, align 8
  %7 = alloca ptr, align 8
  %8 = alloca i32, align 4
  store ptr %0, ptr %4, align 8, !tbaa !121
  store ptr %1, ptr %5, align 8, !tbaa !105
  store ptr %2, ptr %6, align 8, !tbaa !105
  %9 = load ptr, ptr %4, align 8
  call void @_ZN8datatype10param_size4sizeC2Ev(ptr noundef nonnull align 8 dereferenceable(12) %9) #3
  store ptr getelementptr inbounds inrange(-16, 32) ({ [6 x ptr] }, ptr @_ZTVN8datatype10param_size4plusE, i32 0, i32 0, i32 2), ptr %9, align 8, !tbaa !108
  %10 = getelementptr inbounds nuw %"struct.datatype::param_size::plus", ptr %9, i32 0, i32 1
  %11 = load ptr, ptr %5, align 8, !tbaa !105
  store ptr %11, ptr %10, align 8, !tbaa !123
  %12 = getelementptr inbounds nuw %"struct.datatype::param_size::plus", ptr %9, i32 0, i32 2
  %13 = load ptr, ptr %6, align 8, !tbaa !105
  store ptr %13, ptr %12, align 8, !tbaa !125
  %14 = load ptr, ptr %5, align 8, !tbaa !105
  invoke void @_ZN8datatype10param_size4size7inc_refEv(ptr noundef nonnull align 8 dereferenceable(12) %14)
          to label %15 unwind label %18

15:                                               ; preds = %3
  %16 = load ptr, ptr %6, align 8, !tbaa !105
  invoke void @_ZN8datatype10param_size4size7inc_refEv(ptr noundef nonnull align 8 dereferenceable(12) %16)
          to label %17 unwind label %18

17:                                               ; preds = %15
  ret void

18:                                               ; preds = %15, %3
  %19 = landingpad { ptr, i32 }
          cleanup
  %20 = extractvalue { ptr, i32 } %19, 0
  store ptr %20, ptr %7, align 8
  %21 = extractvalue { ptr, i32 } %19, 1
  store i32 %21, ptr %8, align 4
  call void @_ZN8datatype10param_size4sizeD2Ev(ptr noundef nonnull align 8 dereferenceable(12) %9) #3
  br label %22

22:                                               ; preds = %18
  %23 = load ptr, ptr %7, align 8
  %24 = load i32, ptr %8, align 4
  %25 = insertvalue { ptr, i32 } poison, ptr %23, 0
  %26 = insertvalue { ptr, i32 } %25, i32 %24, 1
  resume { ptr, i32 } %26
}

; Function Attrs: mustprogress uwtable
define hidden noundef ptr @_ZN8datatype10param_size4size7mk_plusEPS1_S2_(ptr noundef %0, ptr noundef %1) #4 align 2 {
  %3 = alloca ptr, align 8
  %4 = alloca ptr, align 8
  store ptr %0, ptr %3, align 8, !tbaa !105
  store ptr %1, ptr %4, align 8, !tbaa !105
  %5 = call noalias noundef ptr @_ZN6memory8allocateEm(i64 noundef 32)
  %6 = load ptr, ptr %3, align 8, !tbaa !105
  %7 = load ptr, ptr %4, align 8, !tbaa !105
  call void @_ZN8datatype10param_size4plusC2EPNS0_4sizeES3_(ptr noundef nonnull align 8 dereferenceable(32) %5, ptr noundef %6, ptr noundef %7)
  ret ptr %5
}

; Function Attrs: mustprogress uwtable
define hidden noundef ptr @_ZN8datatype10param_size4plus5substER7obj_mapI4sortPNS0_4sizeEE(ptr noundef nonnull align 8 dereferenceable(32) %0, ptr noundef nonnull align 8 dereferenceable(24) %1) unnamed_addr #4 align 2 {
  %3 = alloca ptr, align 8
  %4 = alloca ptr, align 8
  store ptr %0, ptr %3, align 8, !tbaa !121
  store ptr %1, ptr %4, align 8, !tbaa !158
  %5 = load ptr, ptr %3, align 8
  %6 = getelementptr inbounds nuw %"struct.datatype::param_size::plus", ptr %5, i32 0, i32 1
  %7 = load ptr, ptr %6, align 8, !tbaa !123
  %8 = load ptr, ptr %4, align 8, !tbaa !158
  %9 = load ptr, ptr %7, align 8, !tbaa !108
  %10 = getelementptr inbounds ptr, ptr %9, i64 2
  %11 = load ptr, ptr %10, align 8
  %12 = call noundef ptr %11(ptr noundef nonnull align 8 dereferenceable(12) %7, ptr noundef nonnull align 8 dereferenceable(24) %8)
  %13 = getelementptr inbounds nuw %"struct.datatype::param_size::plus", ptr %5, i32 0, i32 2
  %14 = load ptr, ptr %13, align 8, !tbaa !125
  %15 = load ptr, ptr %4, align 8, !tbaa !158
  %16 = load ptr, ptr %14, align 8, !tbaa !108
  %17 = getelementptr inbounds ptr, ptr %16, i64 2
  %18 = load ptr, ptr %17, align 8
  %19 = call noundef ptr %18(ptr noundef nonnull align 8 dereferenceable(12) %14, ptr noundef nonnull align 8 dereferenceable(24) %15)
  %20 = call noundef ptr @_ZN8datatype10param_size4size7mk_plusEPS1_S2_(ptr noundef %12, ptr noundef %19)
  ret ptr %20
}